target datalayout = "e-m:e-p270:32:32-p271:32:32-p272:64:64-i64:64-i128:128-f80:128-n8:16:32:64-S128"
target triple = "x86_64-pc-linux-gnu"

%struct.H5CX_node_t = type { %struct.H5CX_t, ptr }
%struct.H5CX_t = type { i64, ptr, i64, ptr, i64, ptr, i64, ptr, i64, ptr, i64, ptr, i64, i32, i64, i8, ptr, i8, ptr, i8, i32, i8, [3 x double], i8, i64, i8, i32, i8, %struct.H5Z_cb_t, i8, ptr, i8, %struct.H5T_vlen_alloc_info_t, i8, %struct.H5T_conv_cb_t, i8, i32, i8, i8, i8, i32, i8, i8, i32, i8, i8, i32, i8, i32, i8, i64, i8, i8, i8, i8, i8, ptr, i8, ptr, i8, i32, i8, i32, i8, %struct.H5VL_connector_prop_t, i8, ptr, i8 }
%struct.H5Z_cb_t = type { ptr, ptr }
%struct.H5T_vlen_alloc_info_t = type { ptr, ptr, ptr, ptr }
%struct.H5T_conv_cb_t = type { ptr, ptr }
%struct.H5VL_connector_prop_t = type { ptr, ptr }

@H5_libinit_g = external global i8, align 1
@H5_libterm_g = external global i8, align 1
@.str = private unnamed_addr constant [97 x i8] c"generated/home/dtcxzyw/WorkSpace/Projects/compilers/llvm-opt-benchmark/bench/hdf5/hdf5/src/H5G.c\00", align 1
@H5E_FUNC_g = external global i64, align 8
@H5E_CANTINIT_g = external global i64, align 8
@.str.1 = private unnamed_addr constant [30 x i8] c"library initialization failed\00", align 1
@H5G_init_g = external global i8, align 1
@.str.2 = private unnamed_addr constant [32 x i8] c"interface initialization failed\00", align 1
@H5E_CANTSET_g = external global i64, align 8
@.str.3 = private unnamed_addr constant [22 x i8] c"can't set API context\00", align 1
@H5E_SYM_g = external global i64, align 8
@H5E_CANTGET_g = external global i64, align 8
@__func__.H5Gget_info_by_name = private unnamed_addr constant [20 x i8] c"H5Gget_info_by_name\00", align 1
@.str.34 = private unnamed_addr constant [40 x i8] c"can't synchronously retrieve group info\00", align 1

; Function Attrs: nounwind uwtable
define i32 @H5Gget_info_by_name(i64 noundef %0, ptr noundef %1, ptr noundef %2, i64 noundef %3) #0 {
  %5 = alloca i64, align 8
  %6 = alloca ptr, align 8
  %7 = alloca ptr, align 8
  %8 = alloca i64, align 8
  %9 = alloca i32, align 4
  %10 = alloca %struct.H5CX_node_t, align 8
  %11 = alloca i8, align 1
  %12 = alloca i8, align 1
  store i64 %0, ptr %5, align 8, !tbaa !3
  store ptr %1, ptr %6, align 8, !tbaa !7
  store ptr %2, ptr %7, align 8, !tbaa !27
  store i64 %3, ptr %8, align 8, !tbaa !3
  call void @llvm.lifetime.start.p0(i64 4, ptr %9) #5
  store i32 0, ptr %9, align 4, !tbaa !20
  call void @llvm.lifetime.start.p0(i64 480, ptr %10) #5
  call void @llvm.memset.p0.i64(ptr align 8 %10, i8 0, i64 480, i1 false)
  call void @llvm.lifetime.start.p0(i64 1, ptr %11) #5
  store i8 0, ptr %11, align 1, !tbaa !10
  call void @llvm.lifetime.start.p0(i64 1, ptr %12) #5
  store i8 0, ptr %12, align 1, !tbaa !10
  br label %13

13:                                               ; preds = %4
  %14 = load i8, ptr @H5_libinit_g, align 1, !tbaa !10, !range !12, !noundef !13
  %15 = trunc i8 %14 to i1
  br i1 %15, label %20, label %16

16:                                               ; preds = %13
  %17 = load i8, ptr @H5_libterm_g, align 1, !tbaa !10, !range !12, !noundef !13
  %18 = trunc i8 %17 to i1
  %19 = xor i1 %18, true
  br label %20

20:                                               ; preds = %16, %13
  %21 = phi i1 [ false, %13 ], [ %19, %16 ]
  %22 = xor i1 %21, true
  %23 = xor i1 %22, true
  %24 = zext i1 %23 to i32
  %25 = sext i32 %24 to i64
  %26 = call i64 @llvm.expect.i64(i64 %25, i64 0)
  %27 = icmp ne i64 %26, 0
  br i1 %27, label %28, label %57

28:                                               ; preds = %20
  %29 = call i32 @H5_init_library()
  %30 = icmp slt i32 %29, 0
  %31 = xor i1 %30, true
  %32 = xor i1 %31, true
  %33 = zext i1 %32 to i32
  %34 = sext i32 %33 to i64
  %35 = call i64 @llvm.expect.i64(i64 %34, i64 0)
  %36 = icmp ne i64 %35, 0
  br i1 %36, label %37, label %56

37:                                               ; preds = %28
  br label %38

38:                                               ; preds = %37
  br label %39

39:                                               ; preds = %38
  br label %40

40:                                               ; preds = %39
  %41 = load i64, ptr @H5E_FUNC_g, align 8, !tbaa !3
  %42 = load i64, ptr @H5E_CANTINIT_g, align 8, !tbaa !3
  %43 = call i32 (ptr, ptr, i32, i64, i64, ptr, ...) @H5E_printf_stack(ptr noundef @.str, ptr noundef @__func__.H5Gget_info_by_name, i32 noundef 692, i64 noundef %41, i64 noundef %42, ptr noundef @.str.1)
  br label %44

44:                                               ; preds = %40
  br label %45

45:                                               ; preds = %44
  store i8 1, ptr %12, align 1, !tbaa !10
  %46 = load i8, ptr %12, align 1, !tbaa !10, !range !12, !noundef !13
  %47 = trunc i8 %46 to i1
  %48 = zext i1 %47 to i8
  store i8 %48, ptr %12, align 1, !tbaa !10
  br label %49

49:                                               ; preds = %45
  br label %50

50:                                               ; preds = %49
  br label %51

51:                                               ; preds = %50
  store i32 -1, ptr %9, align 4, !tbaa !20
  br label %157

52:                                               ; No predecessors!
  br label %53

53:                                               ; preds = %52
  br label %54

54:                                               ; preds = %53
  br label %55

55:                                               ; preds = %54
  br label %56

56:                                               ; preds = %55, %28
  br label %57

57:                                               ; preds = %56, %20
  %58 = load i8, ptr @H5G_init_g, align 1, !tbaa !10, !range !12, !noundef !13
  %59 = trunc i8 %58 to i1
  br i1 %59, label %64, label %60

60:                                               ; preds = %57
  %61 = load i8, ptr @H5_libterm_g, align 1, !tbaa !10, !range !12, !noundef !13
  %62 = trunc i8 %61 to i1
  %63 = xor i1 %62, true
  br label %64

64:                                               ; preds = %60, %57
  %65 = phi i1 [ false, %57 ], [ %63, %60 ]
  %66 = xor i1 %65, true
  %67 = xor i1 %66, true
  %68 = zext i1 %67 to i32
  %69 = sext i32 %68 to i64
  %70 = call i64 @llvm.expect.i64(i64 %69, i64 0)
  %71 = icmp ne i64 %70, 0
  br i1 %71, label %72, label %95

72:                                               ; preds = %64
  store i8 1, ptr @H5G_init_g, align 1, !tbaa !10
  %73 = call i32 @H5G__init_package()
  %74 = icmp slt i32 %73, 0
  br i1 %74, label %75, label %94

75:                                               ; preds = %72
  store i8 0, ptr @H5G_init_g, align 1, !tbaa !10
  br label %76

76:                                               ; preds = %75
  br label %77

77:                                               ; preds = %76
  br label %78

78:                                               ; preds = %77
  %79 = load i64, ptr @H5E_FUNC_g, align 8, !tbaa !3
  %80 = load i64, ptr @H5E_CANTINIT_g, align 8, !tbaa !3
  %81 = call i32 (ptr, ptr, i32, i64, i64, ptr, ...) @H5E_printf_stack(ptr noundef @.str, ptr noundef @__func__.H5Gget_info_by_name, i32 noundef 692, i64 noundef %79, i64 noundef %80, ptr noundef @.str.2)
  br label %82

82:                                               ; preds = %78
  br label %83

83:                                               ; preds = %82
  store i8 1, ptr %12, align 1, !tbaa !10
  %84 = load i8, ptr %12, align 1, !tbaa !10, !range !12, !noundef !13
  %85 = trunc i8 %84 to i1
  %86 = zext i1 %85 to i8
  store i8 %86, ptr %12, align 1, !tbaa !10
  br label %87

87:                                               ; preds = %83
  br label %88

88:                                               ; preds = %87
  br label %89

89:                                               ; preds = %88
  store i32 -1, ptr %9, align 4, !tbaa !20
  br label %157

90:                                               ; No predecessors!
  br label %91

91:                                               ; preds = %90
  br label %92

92:                                               ; preds = %91
  br label %93

93:                                               ; preds = %92
  br label %94

94:                                               ; preds = %93, %72
  br label %95

95:                                               ; preds = %94, %64
  br label %96

96:                                               ; preds = %95
  br label %97

97:                                               ; preds = %96
  br label %98

98:                                               ; preds = %97
  %99 = call i32 @H5CX_push(ptr noundef %10)
  %100 = icmp slt i32 %99, 0
  %101 = xor i1 %100, true
  %102 = xor i1 %101, true
  %103 = zext i1 %102 to i32
  %104 = sext i32 %103 to i64
  %105 = call i64 @llvm.expect.i64(i64 %104, i64 0)
  %106 = icmp ne i64 %105, 0
  br i1 %106, label %107, label %126

107:                                              ; preds = %98
  br label %108

108:                                              ; preds = %107
  br label %109

109:                                              ; preds = %108
  br label %110

110:                                              ; preds = %109
  %111 = load i64, ptr @H5E_FUNC_g, align 8, !tbaa !3
  %112 = load i64, ptr @H5E_CANTSET_g, align 8, !tbaa !3
  %113 = call i32 (ptr, ptr, i32, i64, i64, ptr, ...) @H5E_printf_stack(ptr noundef @.str, ptr noundef @__func__.H5Gget_info_by_name, i32 noundef 692, i64 noundef %111, i64 noundef %112, ptr noundef @.str.3)
  br label %114

114:                                              ; preds = %110
  br label %115

115:                                              ; preds = %114
  store i8 1, ptr %12, align 1, !tbaa !10
  %116 = load i8, ptr %12, align 1, !tbaa !10, !range !12, !noundef !13
  %117 = trunc i8 %116 to i1
  %118 = zext i1 %117 to i8
  store i8 %118, ptr %12, align 1, !tbaa !10
  br label %119

119:                                              ; preds = %115
  br label %120

120:                                              ; preds = %119
  br label %121

121:                                              ; preds = %120
  store i32 -1, ptr %9, align 4, !tbaa !20
  br label %157

122:                                              ; No predecessors!
  br label %123

123:                                              ; preds = %122
  br label %124

124:                                              ; preds = %123
  br label %125

125:                                              ; preds = %124
  br label %127

126:                                              ; preds = %98
  store i8 1, ptr %11, align 1, !tbaa !10
  br label %127

127:                                              ; preds = %126, %125
  br label %128

128:                                              ; preds = %127
  br label %129

129:                                              ; preds = %128
  %130 = call i32 @H5E_clear_stack()
  %131 = load i64, ptr %5, align 8, !tbaa !3
  %132 = load ptr, ptr %6, align 8, !tbaa !7
  %133 = load ptr, ptr %7, align 8, !tbaa !27
  %134 = load i64, ptr %8, align 8, !tbaa !3
  %135 = call i32 @H5G__get_info_by_name_api_common(i64 noundef %131, ptr noundef %132, ptr noundef %133, i64 noundef %134, ptr noundef null, ptr noundef null)
  %136 = icmp slt i32 %135, 0
  br i1 %136, label %137, label %156

137:                                              ; preds = %129
  br label %138

138:                                              ; preds = %137
  br label %139

139:                                              ; preds = %138
  br label %140

140:                                              ; preds = %139
  %141 = load i64, ptr @H5E_SYM_g, align 8, !tbaa !3
  %142 = load i64, ptr @H5E_CANTGET_g, align 8, !tbaa !3
  %143 = call i32 (ptr, ptr, i32, i64, i64, ptr, ...) @H5E_printf_stack(ptr noundef @.str, ptr noundef @__func__.H5Gget_info_by_name, i32 noundef 696, i64 noundef %141, i64 noundef %142, ptr noundef @.str.34)
  br label %144

144:                                              ; preds = %140
  br label %145

145:                                              ; preds = %144
  store i8 1, ptr %12, align 1, !tbaa !10
  %146 = load i8, ptr %12, align 1, !tbaa !10, !range !12, !noundef !13
  %147 = trunc i8 %146 to i1
  %148 = zext i1 %147 to i8
  store i8 %148, ptr %12, align 1, !tbaa !10
  br label %149

149:                                              ; preds = %145
  br label %150

150:                                              ; preds = %149
  br label %151

151:                                              ; preds = %150
  store i32 -1, ptr %9, align 4, !tbaa !20
  br label %157

152:                                              ; No predecessors!
  br label %153

153:                                              ; preds = %152
  br label %154

154:                                              ; preds = %153
  br label %155

155:                                              ; preds = %154
  br label %156

156:                                              ; preds = %155, %129
  br label %157

157:                                              ; preds = %156, %151, %121, %89, %51
  %158 = load i8, ptr %11, align 1, !tbaa !10, !range !12, !noundef !13
  %159 = trunc i8 %158 to i1
  %160 = xor i1 %159, true
  %161 = xor i1 %160, true
  %162 = zext i1 %161 to i32
  %163 = sext i32 %162 to i64
  %164 = call i64 @llvm.expect.i64(i64 %163, i64 1)
  %165 = icmp ne i64 %164, 0
  br i1 %165, label %166, label %168

166:                                              ; preds = %157
  %167 = call i32 @H5CX_pop(i1 noundef zeroext true)
  store i8 0, ptr %11, align 1, !tbaa !10
  br label %168

168:                                              ; preds = %166, %157
  %169 = load i8, ptr %12, align 1, !tbaa !10, !range !12, !noundef !13
  %170 = trunc i8 %169 to i1
  %171 = xor i1 %170, true
  %172 = xor i1 %171, true
  %173 = zext i1 %172 to i32
  %174 = sext i32 %173 to i64
  %175 = call i64 @llvm.expect.i64(i64 %174, i64 0)
  %176 = icmp ne i64 %175, 0
  br i1 %176, label %177, label %179

177:                                              ; preds = %168
  %178 = call i32 @H5E_dump_api_stack()
  br label %179

179:                                              ; preds = %177, %168
  %180 = load i32, ptr %9, align 4, !tbaa !20
  call void @llvm.lifetime.end.p0(i64 1, ptr %12) #5
  call void @llvm.lifetime.end.p0(i64 1, ptr %11) #5
  call void @llvm.lifetime.end.p0(i64 480, ptr %10) #5
  call void @llvm.lifetime.end.p0(i64 4, ptr %9) #5
  ret i32 %180
}